target datalayout = "e-m:e-p270:32:32-p271:32:32-p272:64:64-i64:64-i128:128-f80:128-n8:16:32:64-S128"
target triple = "x86_64-pc-linux-gnu"

%struct.curl_trc_feat = type { ptr, i32 }
%struct.Curl_easy = type { i32, i64, i64, ptr, %struct.Curl_llist_node, %struct.Curl_llist_node, i32, i32, %struct.Curl_message, %struct.easy_pollset, %struct.Names, ptr, ptr, ptr, ptr, %struct.SingleRequest, %struct.UserDefined, ptr, ptr, ptr, %struct.Progress, %struct.UrlState, ptr, %struct.PureInfo, %struct.curl_tlssessioninfo }
%struct.Curl_llist_node = type { ptr, ptr, ptr, ptr }
%struct.Curl_message = type { %struct.Curl_llist_node, %struct.CURLMsg }
%struct.CURLMsg = type { i32, ptr, %union.anon }
%union.anon = type { ptr }
%struct.easy_pollset = type { [5 x i32], i32, [5 x i8] }
%struct.Names = type { ptr, i32 }
%struct.SingleRequest = type <{ i64, i64, i64, i64, %struct.curltime, i32, i32, i32, i32, i64, i32, i32, i8, i8, [2 x i8], i32, ptr, ptr, %struct.bufq, i64, i64, ptr, ptr, %union.anon.0, ptr, i8, i32, [3 x i8] }>
%struct.curltime = type { i64, i32 }
%struct.bufq = type { ptr, ptr, ptr, ptr, i64, i64, i64, i32 }
%union.anon.0 = type { ptr }
%struct.UserDefined = type <{ ptr, ptr, ptr, ptr, ptr, ptr, i64, i64, i64, ptr, ptr, i64, ptr, ptr, ptr, ptr, ptr, ptr, ptr, ptr, ptr, ptr, ptr, ptr, ptr, ptr, ptr, ptr, ptr, ptr, ptr, ptr, ptr, ptr, ptr, i64, i64, i64, i64, i64, i64, i64, i64, i64, ptr, ptr, %struct.curl_mimepart, ptr, ptr, ptr, i64, %struct.ssl_config_data, %struct.ssl_config_data, ptr, i16, i8, i8, %struct.ssl_general_config, i32, i32, i32, [4 x i8], ptr, ptr, i64, i32, i8, i8, i8, i8, ptr, ptr, ptr, i32, [4 x i8], [74 x ptr], [8 x ptr], i32, i32, i32, [4 x i8], ptr, i32, [4 x i8], ptr, ptr, ptr, ptr, ptr, i32, i32, i32, i32, i32, i32, i32, i32, i64, ptr, ptr, i64, ptr, i64, ptr, ptr, ptr, ptr, i32, i16, i16, i16, i8, i8, i8, i8, i8, i8, i8, i8, i64, [6 x i8] }>
%struct.curl_mimepart = type { ptr, ptr, i32, i32, ptr, ptr, ptr, ptr, ptr, ptr, ptr, ptr, ptr, ptr, ptr, i64, %struct.mime_state, ptr, %struct.mime_encoder_state, i64 }
%struct.mime_state = type { i32, ptr, i64 }
%struct.mime_encoder_state = type { i64, i64, i64, [256 x i8] }
%struct.ssl_config_data = type { %struct.ssl_primary_config, i64, ptr, ptr, ptr, ptr, ptr, ptr, ptr, i16 }
%struct.ssl_primary_config = type { ptr, ptr, ptr, ptr, ptr, ptr, ptr, ptr, ptr, ptr, ptr, ptr, ptr, ptr, i8, i32, i8, i8 }
%struct.ssl_general_config = type { i32 }
%struct.Progress = type { i64, %struct.pgrs_dir, %struct.pgrs_dir, i64, i64, i32, i32, i64, i64, i64, i64, i64, i64, i64, i64, i64, %struct.curltime, %struct.curltime, %struct.curltime, %struct.curltime, %struct.curltime, [6 x i64], [6 x %struct.curltime], i32, i8 }
%struct.pgrs_dir = type { i64, i64, i64, %struct.pgrs_measure }
%struct.pgrs_measure = type { %struct.curltime, i64 }
%struct.UrlState = type { %struct.curltime, i64, i64, %struct.dynbuf, ptr, i64, ptr, i32, i32, i32, ptr, i32, i64, i32, ptr, %struct.digestdata, %struct.digestdata, %struct.auth, %struct.auth, %struct.Curl_async, ptr, i8, %struct.curltime, %struct.Curl_tree, %struct.Curl_llist, [15 x %struct.time_node], ptr, ptr, i64, i64, i64, i64, [32 x i8], i64, ptr, ptr, ptr, %struct.urlpieces, ptr, ptr, ptr, ptr, ptr, i64, %struct.dynbuf, %struct.Curl_llist, [2 x %struct.curl_header], ptr, i32, ptr, ptr, %struct.store_netrc, %struct.dynamically_allocated_data, i8, i8, i8, i8, i32 }
%struct.digestdata = type { ptr, ptr, ptr, ptr, ptr, ptr, i32, i8, i8 }
%struct.auth = type { i64, i64, i64, i8 }
%struct.Curl_async = type { ptr, ptr, ptr, ptr, i32, i32, i8 }
%struct.Curl_tree = type { ptr, ptr, ptr, ptr, %struct.curltime, ptr }
%struct.time_node = type { %struct.Curl_llist_node, %struct.curltime, i32 }
%struct.urlpieces = type { ptr, ptr, ptr, ptr, ptr, ptr, ptr, ptr }
%struct.dynbuf = type { ptr, i64, i64, i64 }
%struct.Curl_llist = type { ptr, ptr, ptr, i64 }
%struct.curl_header = type { ptr, ptr, i64, i64, i32, ptr }
%struct.store_netrc = type { %struct.dynbuf, ptr, i8 }
%struct.dynamically_allocated_data = type { ptr, ptr, ptr, ptr, ptr, ptr, ptr, ptr, ptr, ptr, ptr, ptr, ptr, ptr }
%struct.PureInfo = type { i32, i32, i32, i64, i64, i64, i64, i64, i64, i64, ptr, ptr, i64, i32, %struct.ip_quadruple, i32, ptr, i32, %struct.curl_certinfo, i32, i8 }
%struct.ip_quadruple = type { [46 x i8], [46 x i8], i32, i32 }
%struct.curl_certinfo = type { i32, ptr }
%struct.curl_tlssessioninfo = type { i32, ptr }
%struct.ws_decoder = type { i32, i32, i64, i64, [10 x i8], i32, i32, i32 }
%struct.ws_frame_meta = type { i8, i32, ptr }

@Curl_trc_feat_write = external global %struct.curl_trc_feat, align 8
@.str.50 = private unnamed_addr constant [29 x i8] c"websocket, decoded %s [%s%s]\00", align 1
@.str.51 = private unnamed_addr constant [1 x i8] zeroinitializer, align 1
@.str.52 = private unnamed_addr constant [11 x i8] c" NON-FINAL\00", align 1
@.str.53 = private unnamed_addr constant [36 x i8] c"websocket, decoded %s [%s%s](%d/%d)\00", align 1
@.str.54 = private unnamed_addr constant [45 x i8] c"websocket, decoded %s [%s%s payload=%ld/%ld]\00", align 1
@.str.55 = private unnamed_addr constant [4 x i8] c"???\00", align 1

; Function Attrs: nounwind uwtable
define internal ptr @ws_frame_name_of_op(i8 noundef zeroext %0) #0 {
  %2 = alloca ptr, align 8
  %3 = alloca i8, align 1
  %4 = alloca i8, align 1
  %5 = alloca i64, align 8
  %6 = alloca i32, align 4
  store i8 %0, ptr %3, align 1, !tbaa !91
  call void @llvm.lifetime.start.p0(i64 1, ptr %4) #6
  %7 = load i8, ptr %3, align 1, !tbaa !91
  %8 = zext i8 %7 to i32
  %9 = and i32 %8, 15
  %10 = trunc i32 %9 to i8
  store i8 %10, ptr %4, align 1, !tbaa !91
  call void @llvm.lifetime.start.p0(i64 8, ptr %5) #6
  store i64 0, ptr %5, align 8, !tbaa !17
  br label %11

11:                                               ; preds = %29, %1
  %12 = load i64, ptr %5, align 8, !tbaa !17
  %13 = icmp ult i64 %12, 6
  br i1 %13, label %14, label %32

14:                                               ; preds = %11
  %15 = load i64, ptr %5, align 8, !tbaa !17
  %16 = getelementptr inbounds nuw [6 x %struct.ws_frame_meta], ptr @WS_FRAMES, i64 0, i64 %15
  %17 = getelementptr inbounds nuw %struct.ws_frame_meta, ptr %16, i32 0, i32 0
  %18 = load i8, ptr %17, align 16, !tbaa !170
  %19 = sext i8 %18 to i32
  %20 = load i8, ptr %4, align 1, !tbaa !91
  %21 = zext i8 %20 to i32
  %22 = icmp eq i32 %19, %21
  br i1 %22, label %23, label %28

23:                                               ; preds = %14
  %24 = load i64, ptr %5, align 8, !tbaa !17
  %25 = getelementptr inbounds nuw [6 x %struct.ws_frame_meta], ptr @WS_FRAMES, i64 0, i64 %24
  %26 = getelementptr inbounds nuw %struct.ws_frame_meta, ptr %25, i32 0, i32 2
  %27 = load ptr, ptr %26, align 8, !tbaa !174
  store ptr %27, ptr %2, align 8
  store i32 1, ptr %6, align 4
  br label %33

28:                                               ; preds = %14
  br label %29

29:                                               ; preds = %28
  %30 = load i64, ptr %5, align 8, !tbaa !17
  %31 = add i64 %30, 1
  store i64 %31, ptr %5, align 8, !tbaa !17
  br label %11, !llvm.loop !175

32:                                               ; preds = %11
  store ptr @.str.55, ptr %2, align 8
  store i32 1, ptr %6, align 4
  br label %33

33:                                               ; preds = %32, %23
  call void @llvm.lifetime.end.p0(i64 8, ptr %5) #6
  call void @llvm.lifetime.end.p0(i64 1, ptr %4) #6
  %34 = load ptr, ptr %2, align 8
  ret ptr %34
}

; Function Attrs: nounwind uwtable
define internal void @ws_dec_info(ptr noundef %0, ptr noundef %1, ptr noundef %2) #0 {
  %4 = alloca ptr, align 8
  %5 = alloca ptr, align 8
  %6 = alloca ptr, align 8
  store ptr %0, ptr %4, align 8, !tbaa !98
  store ptr %1, ptr %5, align 8, !tbaa !3
  store ptr %2, ptr %6, align 8, !tbaa !20
  %7 = load ptr, ptr %4, align 8, !tbaa !98
  %8 = getelementptr inbounds nuw %struct.ws_decoder, ptr %7, i32 0, i32 5
  %9 = load i32, ptr %8, align 4, !tbaa !108
  switch i32 %9, label %58 [
    i32 0, label %175
    i32 1, label %10
  ]

10:                                               ; preds = %3
  br label %11

11:                                               ; preds = %10
  %12 = load ptr, ptr %5, align 8, !tbaa !3
  %13 = icmp ne ptr %12, null
  br i1 %13, label %14, label %56

14:                                               ; preds = %11
  %15 = load ptr, ptr %5, align 8, !tbaa !3
  %16 = getelementptr inbounds nuw %struct.Curl_easy, ptr %15, i32 0, i32 16
  %17 = getelementptr inbounds nuw %struct.UserDefined, ptr %16, i32 0, i32 119
  %18 = load i64, ptr %17, align 2
  %19 = lshr i64 %18, 31
  %20 = and i64 %19, 1
  %21 = trunc i64 %20 to i32
  %22 = icmp ne i32 %21, 0
  br i1 %22, label %23, label %56

23:                                               ; preds = %14
  %24 = load ptr, ptr %5, align 8, !tbaa !3
  %25 = getelementptr inbounds nuw %struct.Curl_easy, ptr %24, i32 0, i32 21
  %26 = getelementptr inbounds nuw %struct.UrlState, ptr %25, i32 0, i32 50
  %27 = load ptr, ptr %26, align 8, !tbaa !94
  %28 = icmp ne ptr %27, null
  br i1 %28, label %29, label %37

29:                                               ; preds = %23
  %30 = load ptr, ptr %5, align 8, !tbaa !3
  %31 = getelementptr inbounds nuw %struct.Curl_easy, ptr %30, i32 0, i32 21
  %32 = getelementptr inbounds nuw %struct.UrlState, ptr %31, i32 0, i32 50
  %33 = load ptr, ptr %32, align 8, !tbaa !94
  %34 = getelementptr inbounds nuw %struct.curl_trc_feat, ptr %33, i32 0, i32 1
  %35 = load i32, ptr %34, align 8, !tbaa !95
  %36 = icmp sge i32 %35, 1
  br i1 %36, label %37, label %56

37:                                               ; preds = %29, %23
  %38 = load i32, ptr getelementptr inbounds nuw (%struct.curl_trc_feat, ptr @Curl_trc_feat_write, i32 0, i32 1), align 8, !tbaa !95
  %39 = icmp sge i32 %38, 1
  br i1 %39, label %40, label %56

40:                                               ; preds = %37
  %41 = load ptr, ptr %5, align 8, !tbaa !3
  %42 = load ptr, ptr %6, align 8, !tbaa !20
  %43 = load ptr, ptr %4, align 8, !tbaa !98
  %44 = getelementptr inbounds nuw %struct.ws_decoder, ptr %43, i32 0, i32 4
  %45 = getelementptr inbounds [10 x i8], ptr %44, i64 0, i64 0
  %46 = load i8, ptr %45, align 8, !tbaa !91
  %47 = call ptr @ws_frame_name_of_op(i8 noundef zeroext %46)
  %48 = load ptr, ptr %4, align 8, !tbaa !98
  %49 = getelementptr inbounds nuw %struct.ws_decoder, ptr %48, i32 0, i32 4
  %50 = getelementptr inbounds [10 x i8], ptr %49, i64 0, i64 0
  %51 = load i8, ptr %50, align 8, !tbaa !91
  %52 = zext i8 %51 to i32
  %53 = and i32 %52, 128
  %54 = icmp ne i32 %53, 0
  %55 = select i1 %54, ptr @.str.51, ptr @.str.52
  call void (ptr, ptr, ...) @Curl_trc_write(ptr noundef %41, ptr noundef @.str.50, ptr noundef %42, ptr noundef %47, ptr noundef %55)
  br label %56

56:                                               ; preds = %40, %37, %29, %14, %11
  br label %57

57:                                               ; preds = %56
  br label %175

58:                                               ; preds = %3
  %59 = load ptr, ptr %4, align 8, !tbaa !98
  %60 = getelementptr inbounds nuw %struct.ws_decoder, ptr %59, i32 0, i32 5
  %61 = load i32, ptr %60, align 4, !tbaa !108
  %62 = load ptr, ptr %4, align 8, !tbaa !98
  %63 = getelementptr inbounds nuw %struct.ws_decoder, ptr %62, i32 0, i32 6
  %64 = load i32, ptr %63, align 8, !tbaa !107
  %65 = icmp slt i32 %61, %64
  br i1 %65, label %66, label %120

66:                                               ; preds = %58
  br label %67

67:                                               ; preds = %66
  %68 = load ptr, ptr %5, align 8, !tbaa !3
  %69 = icmp ne ptr %68, null
  br i1 %69, label %70, label %118

70:                                               ; preds = %67
  %71 = load ptr, ptr %5, align 8, !tbaa !3
  %72 = getelementptr inbounds nuw %struct.Curl_easy, ptr %71, i32 0, i32 16
  %73 = getelementptr inbounds nuw %struct.UserDefined, ptr %72, i32 0, i32 119
  %74 = load i64, ptr %73, align 2
  %75 = lshr i64 %74, 31
  %76 = and i64 %75, 1
  %77 = trunc i64 %76 to i32
  %78 = icmp ne i32 %77, 0
  br i1 %78, label %79, label %118

79:                                               ; preds = %70
  %80 = load ptr, ptr %5, align 8, !tbaa !3
  %81 = getelementptr inbounds nuw %struct.Curl_easy, ptr %80, i32 0, i32 21
  %82 = getelementptr inbounds nuw %struct.UrlState, ptr %81, i32 0, i32 50
  %83 = load ptr, ptr %82, align 8, !tbaa !94
  %84 = icmp ne ptr %83, null
  br i1 %84, label %85, label %93

85:                                               ; preds = %79
  %86 = load ptr, ptr %5, align 8, !tbaa !3
  %87 = getelementptr inbounds nuw %struct.Curl_easy, ptr %86, i32 0, i32 21
  %88 = getelementptr inbounds nuw %struct.UrlState, ptr %87, i32 0, i32 50
  %89 = load ptr, ptr %88, align 8, !tbaa !94
  %90 = getelementptr inbounds nuw %struct.curl_trc_feat, ptr %89, i32 0, i32 1
  %91 = load i32, ptr %90, align 8, !tbaa !95
  %92 = icmp sge i32 %91, 1
  br i1 %92, label %93, label %118

93:                                               ; preds = %85, %79
  %94 = load i32, ptr getelementptr inbounds nuw (%struct.curl_trc_feat, ptr @Curl_trc_feat_write, i32 0, i32 1), align 8, !tbaa !95
  %95 = icmp sge i32 %94, 1
  br i1 %95, label %96, label %118

96:                                               ; preds = %93
  %97 = load ptr, ptr %5, align 8, !tbaa !3
  %98 = load ptr, ptr %6, align 8, !tbaa !20
  %99 = load ptr, ptr %4, align 8, !tbaa !98
  %100 = getelementptr inbounds nuw %struct.ws_decoder, ptr %99, i32 0, i32 4
  %101 = getelementptr inbounds [10 x i8], ptr %100, i64 0, i64 0
  %102 = load i8, ptr %101, align 8, !tbaa !91
  %103 = call ptr @ws_frame_name_of_op(i8 noundef zeroext %102)
  %104 = load ptr, ptr %4, align 8, !tbaa !98
  %105 = getelementptr inbounds nuw %struct.ws_decoder, ptr %104, i32 0, i32 4
  %106 = getelementptr inbounds [10 x i8], ptr %105, i64 0, i64 0
  %107 = load i8, ptr %106, align 8, !tbaa !91
  %108 = zext i8 %107 to i32
  %109 = and i32 %108, 128
  %110 = icmp ne i32 %109, 0
  %111 = select i1 %110, ptr @.str.51, ptr @.str.52
  %112 = load ptr, ptr %4, align 8, !tbaa !98
  %113 = getelementptr inbounds nuw %struct.ws_decoder, ptr %112, i32 0, i32 5
  %114 = load i32, ptr %113, align 4, !tbaa !108
  %115 = load ptr, ptr %4, align 8, !tbaa !98
  %116 = getelementptr inbounds nuw %struct.ws_decoder, ptr %115, i32 0, i32 6
  %117 = load i32, ptr %116, align 8, !tbaa !107
  call void (ptr, ptr, ...) @Curl_trc_write(ptr noundef %97, ptr noundef @.str.53, ptr noundef %98, ptr noundef %103, ptr noundef %111, i32 noundef %114, i32 noundef %117)
  br label %118

118:                                              ; preds = %96, %93, %85, %70, %67
  br label %119

119:                                              ; preds = %118
  br label %174

120:                                              ; preds = %58
  br label %121

121:                                              ; preds = %120
  %122 = load ptr, ptr %5, align 8, !tbaa !3
  %123 = icmp ne ptr %122, null
  br i1 %123, label %124, label %172

124:                                              ; preds = %121
  %125 = load ptr, ptr %5, align 8, !tbaa !3
  %126 = getelementptr inbounds nuw %struct.Curl_easy, ptr %125, i32 0, i32 16
  %127 = getelementptr inbounds nuw %struct.UserDefined, ptr %126, i32 0, i32 119
  %128 = load i64, ptr %127, align 2
  %129 = lshr i64 %128, 31
  %130 = and i64 %129, 1
  %131 = trunc i64 %130 to i32
  %132 = icmp ne i32 %131, 0
  br i1 %132, label %133, label %172

133:                                              ; preds = %124
  %134 = load ptr, ptr %5, align 8, !tbaa !3
  %135 = getelementptr inbounds nuw %struct.Curl_easy, ptr %134, i32 0, i32 21
  %136 = getelementptr inbounds nuw %struct.UrlState, ptr %135, i32 0, i32 50
  %137 = load ptr, ptr %136, align 8, !tbaa !94
  %138 = icmp ne ptr %137, null
  br i1 %138, label %139, label %147

139:                                              ; preds = %133
  %140 = load ptr, ptr %5, align 8, !tbaa !3
  %141 = getelementptr inbounds nuw %struct.Curl_easy, ptr %140, i32 0, i32 21
  %142 = getelementptr inbounds nuw %struct.UrlState, ptr %141, i32 0, i32 50
  %143 = load ptr, ptr %142, align 8, !tbaa !94
  %144 = getelementptr inbounds nuw %struct.curl_trc_feat, ptr %143, i32 0, i32 1
  %145 = load i32, ptr %144, align 8, !tbaa !95
  %146 = icmp sge i32 %145, 1
  br i1 %146, label %147, label %172

147:                                              ; preds = %139, %133
  %148 = load i32, ptr getelementptr inbounds nuw (%struct.curl_trc_feat, ptr @Curl_trc_feat_write, i32 0, i32 1), align 8, !tbaa !95
  %149 = icmp sge i32 %148, 1
  br i1 %149, label %150, label %172

150:                                              ; preds = %147
  %151 = load ptr, ptr %5, align 8, !tbaa !3
  %152 = load ptr, ptr %6, align 8, !tbaa !20
  %153 = load ptr, ptr %4, align 8, !tbaa !98
  %154 = getelementptr inbounds nuw %struct.ws_decoder, ptr %153, i32 0, i32 4
  %155 = getelementptr inbounds [10 x i8], ptr %154, i64 0, i64 0
  %156 = load i8, ptr %155, align 8, !tbaa !91
  %157 = call ptr @ws_frame_name_of_op(i8 noundef zeroext %156)
  %158 = load ptr, ptr %4, align 8, !tbaa !98
  %159 = getelementptr inbounds nuw %struct.ws_decoder, ptr %158, i32 0, i32 4
  %160 = getelementptr inbounds [10 x i8], ptr %159, i64 0, i64 0
  %161 = load i8, ptr %160, align 8, !tbaa !91
  %162 = zext i8 %161 to i32
  %163 = and i32 %162, 128
  %164 = icmp ne i32 %163, 0
  %165 = select i1 %164, ptr @.str.51, ptr @.str.52
  %166 = load ptr, ptr %4, align 8, !tbaa !98
  %167 = getelementptr inbounds nuw %struct.ws_decoder, ptr %166, i32 0, i32 2
  %168 = load i64, ptr %167, align 8, !tbaa !105
  %169 = load ptr, ptr %4, align 8, !tbaa !98
  %170 = getelementptr inbounds nuw %struct.ws_decoder, ptr %169, i32 0, i32 3
  %171 = load i64, ptr %170, align 8, !tbaa !106
  call void (ptr, ptr, ...) @Curl_trc_write(ptr noundef %151, ptr noundef @.str.54, ptr noundef %152, ptr noundef %157, ptr noundef %165, i64 noundef %168, i64 noundef %171)
  br label %172

172:                                              ; preds = %150, %147, %139, %124, %121
  br label %173

173:                                              ; preds = %172
  br label %174

174:                                              ; preds = %173, %119
  br label %175

175:                                              ; preds = %174, %57, %3
  ret void
}