; Function Attrs: nounwind uwtable
define internal fastcc void @ws_dec_info(ptr noundef nonnull readonly captures(none) %0, ptr noundef %1, ptr noundef %2) unnamed_addr #0 {
  %4 = getelementptr inbounds nuw i8, ptr %0, i64 36
  %5 = load i32, ptr %4, align 4, !tbaa !90
  switch i32 %5, label %35 [
    i32 0, label %101
    i32 1, label %6
  ]

6:                                                ; preds = %3
  %.not = icmp eq ptr %1, null
  br i1 %.not, label %101, label %7

7:                                                ; preds = %6
  %8 = getelementptr inbounds nuw i8, ptr %1, i64 2658
  %9 = load i64, ptr %8, align 2
  %10 = and i64 %9, 2147483648
  %.not41 = icmp eq i64 %10, 0
  br i1 %.not41, label %101, label %11

11:                                               ; preds = %7
  %12 = getelementptr inbounds nuw i8, ptr %1, i64 4864
  %13 = load ptr, ptr %12, align 8, !tbaa !85
  %.not42 = icmp eq ptr %13, null
  br i1 %.not42, label %20, label %14

14:                                               ; preds = %11
  %15 = getelementptr inbounds nuw i8, ptr %13, i64 8
  %16 = load i32, ptr %15, align 8, !tbaa !86
  %17 = icmp sgt i32 %16, 0
  %18 = load i32, ptr getelementptr inbounds nuw (i8, ptr @Curl_trc_feat_write, i64 8), align 8
  %19 = icmp sgt i32 %18, 0
  %or.cond = select i1 %17, i1 %19, i1 false
  br i1 %or.cond, label %21, label %101

20:                                               ; preds = %11
  %.old = load i32, ptr getelementptr inbounds nuw (i8, ptr @Curl_trc_feat_write, i64 8), align 8, !tbaa !86
  %.old1 = icmp sgt i32 %.old, 0
  br i1 %.old1, label %21, label %101

21:                                               ; preds = %14, %20
  %22 = getelementptr inbounds nuw i8, ptr %0, i64 24
  %23 = load i8, ptr %22, align 8, !tbaa !84
  %24 = and i8 %23, 15
  br label %27

25:                                               ; preds = %27
  %26 = add nuw nsw i64 %.07.i, 1
  %exitcond.not.i = icmp eq i64 %26, 6
  br i1 %exitcond.not.i, label %ws_frame_name_of_op.exit, label %27, !llvm.loop !132

27:                                               ; preds = %25, %21
  %.07.i = phi i64 [ 0, %21 ], [ %26, %25 ]
  %28 = getelementptr inbounds nuw [6 x %struct.ws_frame_meta], ptr @WS_FRAMES, i64 0, i64 %.07.i
  %29 = load i8, ptr %28, align 16, !tbaa !124
  %30 = icmp eq i8 %29, %24
  br i1 %30, label %31, label %25

31:                                               ; preds = %27
  %32 = getelementptr inbounds nuw i8, ptr %28, i64 8
  %33 = load ptr, ptr %32, align 8, !tbaa !133
  br label %ws_frame_name_of_op.exit

ws_frame_name_of_op.exit:                         ; preds = %25, %31
  %.06.i = phi ptr [ %33, %31 ], [ @.str.55, %25 ]
  %.not43 = icmp sgt i8 %23, -1
  %34 = select i1 %.not43, ptr @.str.52, ptr @.str.51
  tail call void (ptr, ptr, ...) @Curl_trc_write(ptr noundef nonnull %1, ptr noundef nonnull @.str.50, ptr noundef %2, ptr noundef %.06.i, ptr noundef nonnull %34) #7
  br label %101

35:                                               ; preds = %3
  %36 = getelementptr inbounds nuw i8, ptr %0, i64 40
  %37 = load i32, ptr %36, align 8, !tbaa !88
  %38 = icmp slt i32 %5, %37
  %.not48 = icmp eq ptr %1, null
  br i1 %38, label %39, label %68

39:                                               ; preds = %35
  br i1 %.not48, label %101, label %40

40:                                               ; preds = %39
  %41 = getelementptr inbounds nuw i8, ptr %1, i64 2658
  %42 = load i64, ptr %41, align 2
  %43 = and i64 %42, 2147483648
  %.not49 = icmp eq i64 %43, 0
  br i1 %.not49, label %101, label %44

44:                                               ; preds = %40
  %45 = getelementptr inbounds nuw i8, ptr %1, i64 4864
  %46 = load ptr, ptr %45, align 8, !tbaa !85
  %.not50 = icmp eq ptr %46, null
  br i1 %.not50, label %53, label %47

47:                                               ; preds = %44
  %48 = getelementptr inbounds nuw i8, ptr %46, i64 8
  %49 = load i32, ptr %48, align 8, !tbaa !86
  %50 = icmp sgt i32 %49, 0
  %51 = load i32, ptr getelementptr inbounds nuw (i8, ptr @Curl_trc_feat_write, i64 8), align 8
  %52 = icmp sgt i32 %51, 0
  %or.cond4 = select i1 %50, i1 %52, i1 false
  br i1 %or.cond4, label %54, label %101

53:                                               ; preds = %44
  %.old2 = load i32, ptr getelementptr inbounds nuw (i8, ptr @Curl_trc_feat_write, i64 8), align 8, !tbaa !86
  %.old3 = icmp sgt i32 %.old2, 0
  br i1 %.old3, label %54, label %101

54:                                               ; preds = %47, %53
  %55 = getelementptr inbounds nuw i8, ptr %0, i64 24
  %56 = load i8, ptr %55, align 8, !tbaa !84
  %57 = and i8 %56, 15
  br label %60

58:                                               ; preds = %60
  %59 = add nuw nsw i64 %.07.i52, 1
  %exitcond.not.i53 = icmp eq i64 %59, 6
  br i1 %exitcond.not.i53, label %ws_frame_name_of_op.exit55, label %60, !llvm.loop !132

60:                                               ; preds = %58, %54
  %.07.i52 = phi i64 [ 0, %54 ], [ %59, %58 ]
  %61 = getelementptr inbounds nuw [6 x %struct.ws_frame_meta], ptr @WS_FRAMES, i64 0, i64 %.07.i52
  %62 = load i8, ptr %61, align 16, !tbaa !124
  %63 = icmp eq i8 %62, %57
  br i1 %63, label %64, label %58

64:                                               ; preds = %60
  %65 = getelementptr inbounds nuw i8, ptr %61, i64 8
  %66 = load ptr, ptr %65, align 8, !tbaa !133
  br label %ws_frame_name_of_op.exit55

ws_frame_name_of_op.exit55:                       ; preds = %58, %64
  %.06.i54 = phi ptr [ %66, %64 ], [ @.str.55, %58 ]
  %.not51 = icmp sgt i8 %56, -1
  %67 = select i1 %.not51, ptr @.str.52, ptr @.str.51
  tail call void (ptr, ptr, ...) @Curl_trc_write(ptr noundef nonnull %1, ptr noundef nonnull @.str.53, ptr noundef %2, ptr noundef %.06.i54, ptr noundef nonnull %67, i32 noundef %5, i32 noundef %37) #7
  br label %101

68:                                               ; preds = %35
  br i1 %.not48, label %101, label %69

69:                                               ; preds = %68
  %70 = getelementptr inbounds nuw i8, ptr %1, i64 2658
  %71 = load i64, ptr %70, align 2
  %72 = and i64 %71, 2147483648
  %.not45 = icmp eq i64 %72, 0
  br i1 %.not45, label %101, label %73

73:                                               ; preds = %69
  %74 = getelementptr inbounds nuw i8, ptr %1, i64 4864
  %75 = load ptr, ptr %74, align 8, !tbaa !85
  %.not46 = icmp eq ptr %75, null
  br i1 %.not46, label %82, label %76

76:                                               ; preds = %73
  %77 = getelementptr inbounds nuw i8, ptr %75, i64 8
  %78 = load i32, ptr %77, align 8, !tbaa !86
  %79 = icmp sgt i32 %78, 0
  %80 = load i32, ptr getelementptr inbounds nuw (i8, ptr @Curl_trc_feat_write, i64 8), align 8
  %81 = icmp sgt i32 %80, 0
  %or.cond7 = select i1 %79, i1 %81, i1 false
  br i1 %or.cond7, label %83, label %101

82:                                               ; preds = %73
  %.old5 = load i32, ptr getelementptr inbounds nuw (i8, ptr @Curl_trc_feat_write, i64 8), align 8, !tbaa !86
  %.old6 = icmp sgt i32 %.old5, 0
  br i1 %.old6, label %83, label %101

83:                                               ; preds = %76, %82
  %84 = getelementptr inbounds nuw i8, ptr %0, i64 24
  %85 = load i8, ptr %84, align 8, !tbaa !84
  %86 = and i8 %85, 15
  br label %89

87:                                               ; preds = %89
  %88 = add nuw nsw i64 %.07.i56, 1
  %exitcond.not.i57 = icmp eq i64 %88, 6
  br i1 %exitcond.not.i57, label %ws_frame_name_of_op.exit59, label %89, !llvm.loop !132

89:                                               ; preds = %87, %83
  %.07.i56 = phi i64 [ 0, %83 ], [ %88, %87 ]
  %90 = getelementptr inbounds nuw [6 x %struct.ws_frame_meta], ptr @WS_FRAMES, i64 0, i64 %.07.i56
  %91 = load i8, ptr %90, align 16, !tbaa !124
  %92 = icmp eq i8 %91, %86
  br i1 %92, label %93, label %87

93:                                               ; preds = %89
  %94 = getelementptr inbounds nuw i8, ptr %90, i64 8
  %95 = load ptr, ptr %94, align 8, !tbaa !133
  br label %ws_frame_name_of_op.exit59

ws_frame_name_of_op.exit59:                       ; preds = %87, %93
  %.06.i58 = phi ptr [ %95, %93 ], [ @.str.55, %87 ]
  %.not47 = icmp sgt i8 %85, -1
  %96 = select i1 %.not47, ptr @.str.52, ptr @.str.51
  %97 = getelementptr inbounds nuw i8, ptr %0, i64 8
  %98 = load i64, ptr %97, align 8, !tbaa !129
  %99 = getelementptr inbounds nuw i8, ptr %0, i64 16
  %100 = load i64, ptr %99, align 8, !tbaa !121
  tail call void (ptr, ptr, ...) @Curl_trc_write(ptr noundef nonnull %1, ptr noundef nonnull @.str.54, ptr noundef %2, ptr noundef %.06.i58, ptr noundef nonnull %96, i64 noundef %98, i64 noundef %100) #7
  br label %101

101:                                              ; preds = %39, %40, %47, %53, %ws_frame_name_of_op.exit55, %68, %69, %76, %82, %ws_frame_name_of_op.exit59, %ws_frame_name_of_op.exit, %20, %14, %7, %6, %3
  ret void
}